(lp1
(lp2
S'M'
aI0
aI0
aa(lp3
S'M'
aI15
aI0
aa(lp4
S'M'
aI30
aI0
aa(lp5
S'M'
aI45
aI0
aa(lp6
S'M'
aI100
aI0
aa(lp7
S'M'
aI115
aI0
aa(lp8
S'M'
aI130
aI0
aa(lp9
S'M'
aI145
aI0
aa(lp10
S'M'
aI200
aI0
aa(lp11
S'M'
aI215
aI0
aa(lp12
S'M'
aI230
aI0
aa(lp13
S'M'
aI245
aI0
aa(lp14
S'M'
aI300
aI0
aa(lp15
S'M'
aI315
aI0
aa(lp16
S'M'
aI330
aI0
aa(lp17
S'M'
aI345
aI0
aa(lp18
S'M'
aI400
aI0
aa(lp19
S'M'
aI415
aI0
aa(lp20
S'M'
aI430
aI0
aa(lp21
S'M'
aI445
aI0
aa(lp22
S'M'
aI500
aI0
aa(lp23
S'M'
aI515
aI0
aa(lp24
S'M'
aI530
aI0
aa(lp25
S'M'
aI545
aI0
aa(lp26
S'M'
aI600
aI0
aa(lp27
S'M'
aI615
aI0
aa(lp28
S'M'
aI630
aI0
aa(lp29
S'M'
aI645
aI0
aa(lp30
S'M'
aI700
aI0
aa(lp31
S'M'
aI715
aI9
aa(lp32
S'M'
aI730
aI9
aa(lp33
S'M'
aI745
aI51
aa(lp34
S'M'
aI800
aI51
aa(lp35
S'M'
aI815
aI89
aa(lp36
S'M'
aI830
aI89
aa(lp37
S'M'
aI845
aI355
aa(lp38
S'M'
aI900
aI348
aa(lp39
S'M'
aI915
aI433
aa(lp40
S'M'
aI930
aI273
aa(lp41
S'M'
aI945
aI669
aa(lp42
S'M'
aI1000
aI652
aa(lp43
S'M'
aI1015
aI690
aa(lp44
S'M'
aI1030
aI257
aa(lp45
S'M'
aI1045
aI727
aa(lp46
S'M'
aI1100
aI691
aa(lp47
S'M'
aI1115
aI720
aa(lp48
S'M'
aI1130
aI327
aa(lp49
S'M'
aI1145
aI714
aa(lp50
S'M'
aI1200
aI626
aa(lp51
S'M'
aI1215
aI640
aa(lp52
S'M'
aI1230
aI181
aa(lp53
S'M'
aI1245
aI557
aa(lp54
S'M'
aI1300
aI532
aa(lp55
S'M'
aI1315
aI564
aa(lp56
S'M'
aI1330
aI215
aa(lp57
S'M'
aI1345
aI745
aa(lp58
S'M'
aI1400
aI711
aa(lp59
S'M'
aI1415
aI731
aa(lp60
S'M'
aI1430
aI449
aa(lp61
S'M'
aI1445
aI718
aa(lp62
S'M'
aI1500
aI646
aa(lp63
S'M'
aI1515
aI664
aa(lp64
S'M'
aI1530
aI329
aa(lp65
S'M'
aI1545
aI635
aa(lp66
S'M'
aI1600
aI582
aa(lp67
S'M'
aI1615
aI592
aa(lp68
S'M'
aI1630
aI365
aa(lp69
S'M'
aI1645
aI459
aa(lp70
S'M'
aI1700
aI363
aa(lp71
S'M'
aI1715
aI411
aa(lp72
S'M'
aI1730
aI117
aa(lp73
S'M'
aI1745
aI180
aa(lp74
S'M'
aI1800
aI151
aa(lp75
S'M'
aI1815
aI200
aa(lp76
S'M'
aI1830
aI121
aa(lp77
S'M'
aI1845
aI142
aa(lp78
S'M'
aI1900
aI113
aa(lp79
S'M'
aI1915
aI118
aa(lp80
S'M'
aI1930
aI84
aa(lp81
S'M'
aI1945
aI91
aa(lp82
S'M'
aI2000
aI67
aa(lp83
S'M'
aI2015
aI81
aa(lp84
S'M'
aI2030
aI62
aa(lp85
S'M'
aI2045
aI62
aa(lp86
S'M'
aI2100
aI45
aa(lp87
S'M'
aI2115
aI45
aa(lp88
S'M'
aI2130
aI9
aa(lp89
S'M'
aI2145
aI9
aa(lp90
S'M'
aI2200
aI0
aa(lp91
S'M'
aI2215
aI0
aa(lp92
S'M'
aI2230
aI0
aa(lp93
S'M'
aI2245
aI0
aa(lp94
S'M'
aI2300
aI0
aa(lp95
S'M'
aI2315
aI0
aa(lp96
S'M'
aI2330
aI0
aa(lp97
S'M'
aI2345
aI0
aa(lp98
S'T'
aI0
aI0
aa(lp99
S'T'
aI15
aI0
aa(lp100
S'T'
aI30
aI0
aa(lp101
S'T'
aI45
aI0
aa(lp102
S'T'
aI100
aI0
aa(lp103
S'T'
aI115
aI0
aa(lp104
S'T'
aI130
aI0
aa(lp105
S'T'
aI145
aI0
aa(lp106
S'T'
aI200
aI0
aa(lp107
S'T'
aI215
aI0
aa(lp108
S'T'
aI230
aI0
aa(lp109
S'T'
aI245
aI0
aa(lp110
S'T'
aI300
aI0
aa(lp111
S'T'
aI315
aI0
aa(lp112
S'T'
aI330
aI0
aa(lp113
S'T'
aI345
aI0
aa(lp114
S'T'
aI400
aI0
aa(lp115
S'T'
aI415
aI0
aa(lp116
S'T'
aI430
aI0
aa(lp117
S'T'
aI445
aI0
aa(lp118
S'T'
aI500
aI0
aa(lp119
S'T'
aI515
aI0
aa(lp120
S'T'
aI530
aI0
aa(lp121
S'T'
aI545
aI0
aa(lp122
S'T'
aI600
aI0
aa(lp123
S'T'
aI615
aI0
aa(lp124
S'T'
aI630
aI0
aa(lp125
S'T'
aI645
aI3
aa(lp126
S'T'
aI700
aI3
aa(lp127
S'T'
aI715
aI11
aa(lp128
S'T'
aI730
aI11
aa(lp129
S'T'
aI745
aI57
aa(lp130
S'T'
aI800
aI55
aa(lp131
S'T'
aI815
aI89
aa(lp132
S'T'
aI830
aI86
aa(lp133
S'T'
aI845
aI556
aa(lp134
S'T'
aI900
aI544
aa(lp135
S'T'
aI915
aI650
aa(lp136
S'T'
aI930
aI401
aa(lp137
S'T'
aI945
aI858
aa(lp138
S'T'
aI1000
aI801
aa(lp139
S'T'
aI1015
aI858
aa(lp140
S'T'
aI1030
aI351
aa(lp141
S'T'
aI1045
aI950
aa(lp142
S'T'
aI1100
aI901
aa(lp143
S'T'
aI1115
aI933
aa(lp144
S'T'
aI1130
aI455
aa(lp145
S'T'
aI1145
aI899
aa(lp146
S'T'
aI1200
aI790
aa(lp147
S'T'
aI1215
aI819
aa(lp148
S'T'
aI1230
aI274
aa(lp149
S'T'
aI1245
aI692
aa(lp150
S'T'
aI1300
aI627
aa(lp151
S'T'
aI1315
aI690
aa(lp152
S'T'
aI1330
aI331
aa(lp153
S'T'
aI1345
aI904
aa(lp154
S'T'
aI1400
aI843
aa(lp155
S'T'
aI1415
aI888
aa(lp156
S'T'
aI1430
aI527
aa(lp157
S'T'
aI1445
aI885
aa(lp158
S'T'
aI1500
aI793
aa(lp159
S'T'
aI1515
aI822
aa(lp160
S'T'
aI1530
aI376
aa(lp161
S'T'
aI1545
aI748
aa(lp162
S'T'
aI1600
aI690
aa(lp163
S'T'
aI1615
aI736
aa(lp164
S'T'
aI1630
aI472
aa(lp165
S'T'
aI1645
aI590
aa(lp166
S'T'
aI1700
aI470
aa(lp167
S'T'
aI1715
aI504
aa(lp168
S'T'
aI1730
aI173
aa(lp169
S'T'
aI1745
aI270
aa(lp170
S'T'
aI1800
aI218
aa(lp171
S'T'
aI1815
aI278
aa(lp172
S'T'
aI1830
aI175
aa(lp173
S'T'
aI1845
aI216
aa(lp174
S'T'
aI1900
aI178
aa(lp175
S'T'
aI1915
aI191
aa(lp176
S'T'
aI1930
aI146
aa(lp177
S'T'
aI1945
aI159
aa(lp178
S'T'
aI2000
aI137
aa(lp179
S'T'
aI2015
aI135
aa(lp180
S'T'
aI2030
aI82
aa(lp181
S'T'
aI2045
aI85
aa(lp182
S'T'
aI2100
aI60
aa(lp183
S'T'
aI2115
aI60
aa(lp184
S'T'
aI2130
aI16
aa(lp185
S'T'
aI2145
aI16
aa(lp186
S'T'
aI2200
aI1
aa(lp187
S'T'
aI2215
aI1
aa(lp188
S'T'
aI2230
aI0
aa(lp189
S'T'
aI2245
aI0
aa(lp190
S'T'
aI2300
aI0
aa(lp191
S'T'
aI2315
aI0
aa(lp192
S'T'
aI2330
aI0
aa(lp193
S'T'
aI2345
aI0
aa(lp194
S'W'
aI0
aI0
aa(lp195
S'W'
aI15
aI0
aa(lp196
S'W'
aI30
aI0
aa(lp197
S'W'
aI45
aI0
aa(lp198
S'W'
aI100
aI0
aa(lp199
S'W'
aI115
aI0
aa(lp200
S'W'
aI130
aI0
aa(lp201
S'W'
aI145
aI0
aa(lp202
S'W'
aI200
aI0
aa(lp203
S'W'
aI215
aI0
aa(lp204
S'W'
aI230
aI0
aa(lp205
S'W'
aI245
aI0
aa(lp206
S'W'
aI300
aI0
aa(lp207
S'W'
aI315
aI0
aa(lp208
S'W'
aI330
aI0
aa(lp209
S'W'
aI345
aI0
aa(lp210
S'W'
aI400
aI0
aa(lp211
S'W'
aI415
aI0
aa(lp212
S'W'
aI430
aI0
aa(lp213
S'W'
aI445
aI0
aa(lp214
S'W'
aI500
aI0
aa(lp215
S'W'
aI515
aI0
aa(lp216
S'W'
aI530
aI0
aa(lp217
S'W'
aI545
aI0
aa(lp218
S'W'
aI600
aI0
aa(lp219
S'W'
aI615
aI0
aa(lp220
S'W'
aI630
aI0
aa(lp221
S'W'
aI645
aI0
aa(lp222
S'W'
aI700
aI0
aa(lp223
S'W'
aI715
aI7
aa(lp224
S'W'
aI730
aI7
aa(lp225
S'W'
aI745
aI44
aa(lp226
S'W'
aI800
aI44
aa(lp227
S'W'
aI815
aI91
aa(lp228
S'W'
aI830
aI91
aa(lp229
S'W'
aI845
aI415
aa(lp230
S'W'
aI900
aI409
aa(lp231
S'W'
aI915
aI516
aa(lp232
S'W'
aI930
aI335
aa(lp233
S'W'
aI945
aI778
aa(lp234
S'W'
aI1000
aI757
aa(lp235
S'W'
aI1015
aI791
aa(lp236
S'W'
aI1030
aI307
aa(lp237
S'W'
aI1045
aI845
aa(lp238
S'W'
aI1100
aI809
aa(lp239
S'W'
aI1115
aI841
aa(lp240
S'W'
aI1130
aI379
aa(lp241
S'W'
aI1145
aI834
aa(lp242
S'W'
aI1200
aI737
aa(lp243
S'W'
aI1215
aI773
aa(lp244
S'W'
aI1230
aI258
aa(lp245
S'W'
aI1245
aI686
aa(lp246
S'W'
aI1300
aI638
aa(lp247
S'W'
aI1315
aI672
aa(lp248
S'W'
aI1330
aI278
aa(lp249
S'W'
aI1345
aI847
aa(lp250
S'W'
aI1400
aI800
aa(lp251
S'W'
aI1415
aI819
aa(lp252
S'W'
aI1430
aI493
aa(lp253
S'W'
aI1445
aI830
aa(lp254
S'W'
aI1500
aI754
aa(lp255
S'W'
aI1515
aI781
aa(lp256
S'W'
aI1530
aI382
aa(lp257
S'W'
aI1545
aI749
aa(lp258
S'W'
aI1600
aI677
aa(lp259
S'W'
aI1615
aI703
aa(lp260
S'W'
aI1630
aI442
aa(lp261
S'W'
aI1645
aI539
aa(lp262
S'W'
aI1700
aI449
aa(lp263
S'W'
aI1715
aI496
aa(lp264
S'W'
aI1730
aI153
aa(lp265
S'W'
aI1745
aI243
aa(lp266
S'W'
aI1800
aI200
aa(lp267
S'W'
aI1815
aI265
aa(lp268
S'W'
aI1830
aI174
aa(lp269
S'W'
aI1845
aI204
aa(lp270
S'W'
aI1900
aI171
aa(lp271
S'W'
aI1915
aI184
aa(lp272
S'W'
aI1930
aI130
aa(lp273
S'W'
aI1945
aI146
aa(lp274
S'W'
aI2000
aI112
aa(lp275
S'W'
aI2015
aI126
aa(lp276
S'W'
aI2030
aI93
aa(lp277
S'W'
aI2045
aI95
aa(lp278
S'W'
aI2100
aI68
aa(lp279
S'W'
aI2115
aI68
aa(lp280
S'W'
aI2130
aI19
aa(lp281
S'W'
aI2145
aI19
aa(lp282
S'W'
aI2200
aI2
aa(lp283
S'W'
aI2215
aI2
aa(lp284
S'W'
aI2230
aI0
aa(lp285
S'W'
aI2245
aI0
aa(lp286
S'W'
aI2300
aI0
aa(lp287
S'W'
aI2315
aI0
aa(lp288
S'W'
aI2330
aI0
aa(lp289
S'W'
aI2345
aI0
aa(lp290
S'Th'
p291
aI0
aI0
aa(lp292
g291
aI15
aI0
aa(lp293
g291
aI30
aI0
aa(lp294
g291
aI45
aI0
aa(lp295
g291
aI100
aI0
aa(lp296
g291
aI115
aI0
aa(lp297
g291
aI130
aI0
aa(lp298
g291
aI145
aI0
aa(lp299
g291
aI200
aI0
aa(lp300
g291
aI215
aI0
aa(lp301
g291
aI230
aI0
aa(lp302
g291
aI245
aI0
aa(lp303
g291
aI300
aI0
aa(lp304
g291
aI315
aI0
aa(lp305
g291
aI330
aI0
aa(lp306
g291
aI345
aI0
aa(lp307
g291
aI400
aI0
aa(lp308
g291
aI415
aI0
aa(lp309
g291
aI430
aI0
aa(lp310
g291
aI445
aI0
aa(lp311
g291
aI500
aI0
aa(lp312
g291
aI515
aI0
aa(lp313
g291
aI530
aI0
aa(lp314
g291
aI545
aI1
aa(lp315
g291
aI600
aI1
aa(lp316
g291
aI615
aI1
aa(lp317
g291
aI630
aI1
aa(lp318
g291
aI645
aI1
aa(lp319
g291
aI700
aI1
aa(lp320
g291
aI715
aI2
aa(lp321
g291
aI730
aI1
aa(lp322
g291
aI745
aI40
aa(lp323
g291
aI800
aI40
aa(lp324
g291
aI815
aI90
aa(lp325
g291
aI830
aI90
aa(lp326
g291
aI845
aI555
aa(lp327
g291
aI900
aI545
aa(lp328
g291
aI915
aI664
aa(lp329
g291
aI930
aI402
aa(lp330
g291
aI945
aI893
aa(lp331
g291
aI1000
aI835
aa(lp332
g291
aI1015
aI889
aa(lp333
g291
aI1030
aI382
aa(lp334
g291
aI1045
aI970
aa(lp335
g291
aI1100
aI915
aa(lp336
g291
aI1115
aI941
aa(lp337
g291
aI1130
aI443
aa(lp338
g291
aI1145
aI900
aa(lp339
g291
aI1200
aI799
aa(lp340
g291
aI1215
aI821
aa(lp341
g291
aI1230
aI265
aa(lp342
g291
aI1245
aI768
aa(lp343
g291
aI1300
aI707
aa(lp344
g291
aI1315
aI757
aa(lp345
g291
aI1330
aI325
aa(lp346
g291
aI1345
aI922
aa(lp347
g291
aI1400
aI866
aa(lp348
g291
aI1415
aI898
aa(lp349
g291
aI1430
aI532
aa(lp350
g291
aI1445
aI914
aa(lp351
g291
aI1500
aI832
aa(lp352
g291
aI1515
aI873
aa(lp353
g291
aI1530
aI402
aa(lp354
g291
aI1545
aI759
aa(lp355
g291
aI1600
aI693
aa(lp356
g291
aI1615
aI746
aa(lp357
g291
aI1630
aI494
aa(lp358
g291
aI1645
aI582
aa(lp359
g291
aI1700
aI426
aa(lp360
g291
aI1715
aI468
aa(lp361
g291
aI1730
aI173
aa(lp362
g291
aI1745
aI272
aa(lp363
g291
aI1800
aI226
aa(lp364
g291
aI1815
aI267
aa(lp365
g291
aI1830
aI175
aa(lp366
g291
aI1845
aI218
aa(lp367
g291
aI1900
aI164
aa(lp368
g291
aI1915
aI171
aa(lp369
g291
aI1930
aI129
aa(lp370
g291
aI1945
aI136
aa(lp371
g291
aI2000
aI119
aa(lp372
g291
aI2015
aI117
aa(lp373
g291
aI2030
aI64
aa(lp374
g291
aI2045
aI65
aa(lp375
g291
aI2100
aI46
aa(lp376
g291
aI2115
aI46
aa(lp377
g291
aI2130
aI12
aa(lp378
g291
aI2145
aI12
aa(lp379
g291
aI2200
aI1
aa(lp380
g291
aI2215
aI1
aa(lp381
g291
aI2230
aI0
aa(lp382
g291
aI2245
aI0
aa(lp383
g291
aI2300
aI0
aa(lp384
g291
aI2315
aI0
aa(lp385
g291
aI2330
aI0
aa(lp386
g291
aI2345
aI0
aa(lp387
S'F'
aI0
aI0
aa(lp388
S'F'
aI15
aI0
aa(lp389
S'F'
aI30
aI0
aa(lp390
S'F'
aI45
aI0
aa(lp391
S'F'
aI100
aI0
aa(lp392
S'F'
aI115
aI0
aa(lp393
S'F'
aI130
aI0
aa(lp394
S'F'
aI145
aI0
aa(lp395
S'F'
aI200
aI0
aa(lp396
S'F'
aI215
aI0
aa(lp397
S'F'
aI230
aI0
aa(lp398
S'F'
aI245
aI0
aa(lp399
S'F'
aI300
aI0
aa(lp400
S'F'
aI315
aI0
aa(lp401
S'F'
aI330
aI0
aa(lp402
S'F'
aI345
aI0
aa(lp403
S'F'
aI400
aI0
aa(lp404
S'F'
aI415
aI0
aa(lp405
S'F'
aI430
aI0
aa(lp406
S'F'
aI445
aI0
aa(lp407
S'F'
aI500
aI0
aa(lp408
S'F'
aI515
aI0
aa(lp409
S'F'
aI530
aI0
aa(lp410
S'F'
aI545
aI0
aa(lp411
S'F'
aI600
aI0
aa(lp412
S'F'
aI615
aI0
aa(lp413
S'F'
aI630
aI0
aa(lp414
S'F'
aI645
aI0
aa(lp415
S'F'
aI700
aI0
aa(lp416
S'F'
aI715
aI3
aa(lp417
S'F'
aI730
aI3
aa(lp418
S'F'
aI745
aI39
aa(lp419
S'F'
aI800
aI39
aa(lp420
S'F'
aI815
aI90
aa(lp421
S'F'
aI830
aI89
aa(lp422
S'F'
aI845
aI320
aa(lp423
S'F'
aI900
aI313
aa(lp424
S'F'
aI915
aI375
aa(lp425
S'F'
aI930
aI192
aa(lp426
S'F'
aI945
aI652
aa(lp427
S'F'
aI1000
aI635
aa(lp428
S'F'
aI1015
aI663
aa(lp429
S'F'
aI1030
aI254
aa(lp430
S'F'
aI1045
aI732
aa(lp431
S'F'
aI1100
aI707
aa(lp432
S'F'
aI1115
aI731
aa(lp433
S'F'
aI1130
aI270
aa(lp434
S'F'
aI1145
aI667
aa(lp435
S'F'
aI1200
aI603
aa(lp436
S'F'
aI1215
aI622
aa(lp437
S'F'
aI1230
aI160
aa(lp438
S'F'
aI1245
aI536
aa(lp439
S'F'
aI1300
aI514
aa(lp440
S'F'
aI1315
aI534
aa(lp441
S'F'
aI1330
aI186
aa(lp442
S'F'
aI1345
aI557
aa(lp443
S'F'
aI1400
aI534
aa(lp444
S'F'
aI1415
aI557
aa(lp445
S'F'
aI1430
aI287
aa(lp446
S'F'
aI1445
aI493
aa(lp447
S'F'
aI1500
aI454
aa(lp448
S'F'
aI1515
aI466
aa(lp449
S'F'
aI1530
aI277
aa(lp450
S'F'
aI1545
aI389
aa(lp451
S'F'
aI1600
aI360
aa(lp452
S'F'
aI1615
aI369
aa(lp453
S'F'
aI1630
aI203
aa(lp454
S'F'
aI1645
aI237
aa(lp455
S'F'
aI1700
aI174
aa(lp456
S'F'
aI1715
aI196
aa(lp457
S'F'
aI1730
aI58
aa(lp458
S'F'
aI1745
aI74
aa(lp459
S'F'
aI1800
aI67
aa(lp460
S'F'
aI1815
aI71
aa(lp461
S'F'
aI1830
aI22
aa(lp462
S'F'
aI1845
aI25
aa(lp463
S'F'
aI1900
aI21
aa(lp464
S'F'
aI1915
aI21
aa(lp465
S'F'
aI1930
aI17
aa(lp466
S'F'
aI1945
aI21
aa(lp467
S'F'
aI2000
aI18
aa(lp468
S'F'
aI2015
aI18
aa(lp469
S'F'
aI2030
aI4
aa(lp470
S'F'
aI2045
aI4
aa(lp471
S'F'
aI2100
aI3
aa(lp472
S'F'
aI2115
aI3
aa(lp473
S'F'
aI2130
aI0
aa(lp474
S'F'
aI2145
aI0
aa(lp475
S'F'
aI2200
aI0
aa(lp476
S'F'
aI2215
aI0
aa(lp477
S'F'
aI2230
aI0
aa(lp478
S'F'
aI2245
aI0
aa(lp479
S'F'
aI2300
aI0
aa(lp480
S'F'
aI2315
aI0
aa(lp481
S'F'
aI2330
aI0
aa(lp482
S'F'
aI2345
aI0
aa(lp483
S'Sa'
p484
aI0
aI0
aa(lp485
g484
aI15
aI0
aa(lp486
g484
aI30
aI0
aa(lp487
g484
aI45
aI0
aa(lp488
g484
aI100
aI0
aa(lp489
g484
aI115
aI0
aa(lp490
g484
aI130
aI0
aa(lp491
g484
aI145
aI0
aa(lp492
g484
aI200
aI0
aa(lp493
g484
aI215
aI0
aa(lp494
g484
aI230
aI0
aa(lp495
g484
aI245
aI0
aa(lp496
g484
aI300
aI0
aa(lp497
g484
aI315
aI0
aa(lp498
g484
aI330
aI0
aa(lp499
g484
aI345
aI0
aa(lp500
g484
aI400
aI0
aa(lp501
g484
aI415
aI0
aa(lp502
g484
aI430
aI0
aa(lp503
g484
aI445
aI0
aa(lp504
g484
aI500
aI0
aa(lp505
g484
aI515
aI0
aa(lp506
g484
aI530
aI0
aa(lp507
g484
aI545
aI0
aa(lp508
g484
aI600
aI0
aa(lp509
g484
aI615
aI0
aa(lp510
g484
aI630
aI0
aa(lp511
g484
aI645
aI0
aa(lp512
g484
aI700
aI0
aa(lp513
g484
aI715
aI5
aa(lp514
g484
aI730
aI5
aa(lp515
g484
aI745
aI5
aa(lp516
g484
aI800
aI5
aa(lp517
g484
aI815
aI28
aa(lp518
g484
aI830
aI28
aa(lp519
g484
aI845
aI34
aa(lp520
g484
aI900
aI34
aa(lp521
g484
aI915
aI49
aa(lp522
g484
aI930
aI49
aa(lp523
g484
aI945
aI49
aa(lp524
g484
aI1000
aI49
aa(lp525
g484
aI1015
aI62
aa(lp526
g484
aI1030
aI60
aa(lp527
g484
aI1045
aI62
aa(lp528
g484
aI1100
aI62
aa(lp529
g484
aI1115
aI62
aa(lp530
g484
aI1130
aI61
aa(lp531
g484
aI1145
aI61
aa(lp532
g484
aI1200
aI56
aa(lp533
g484
aI1215
aI49
aa(lp534
g484
aI1230
aI47
aa(lp535
g484
aI1245
aI49
aa(lp536
g484
aI1300
aI48
aa(lp537
g484
aI1315
aI49
aa(lp538
g484
aI1330
aI49
aa(lp539
g484
aI1345
aI49
aa(lp540
g484
aI1400
aI49
aa(lp541
g484
aI1415
aI49
aa(lp542
g484
aI1430
aI48
aa(lp543
g484
aI1445
aI48
aa(lp544
g484
aI1500
aI48
aa(lp545
g484
aI1515
aI48
aa(lp546
g484
aI1530
aI42
aa(lp547
g484
aI1545
aI42
aa(lp548
g484
aI1600
aI31
aa(lp549
g484
aI1615
aI31
aa(lp550
g484
aI1630
aI27
aa(lp551
g484
aI1645
aI28
aa(lp552
g484
aI1700
aI6
aa(lp553
g484
aI1715
aI7
aa(lp554
g484
aI1730
aI2
aa(lp555
g484
aI1745
aI5
aa(lp556
g484
aI1800
aI5
aa(lp557
g484
aI1815
aI12
aa(lp558
g484
aI1830
aI12
aa(lp559
g484
aI1845
aI12
aa(lp560
g484
aI1900
aI12
aa(lp561
g484
aI1915
aI13
aa(lp562
g484
aI1930
aI13
aa(lp563
g484
aI1945
aI13
aa(lp564
g484
aI2000
aI6
aa(lp565
g484
aI2015
aI6
aa(lp566
g484
aI2030
aI5
aa(lp567
g484
aI2045
aI5
aa(lp568
g484
aI2100
aI4
aa(lp569
g484
aI2115
aI4
aa(lp570
g484
aI2130
aI4
aa(lp571
g484
aI2145
aI4
aa(lp572
g484
aI2200
aI0
aa(lp573
g484
aI2215
aI0
aa(lp574
g484
aI2230
aI0
aa(lp575
g484
aI2245
aI0
aa(lp576
g484
aI2300
aI0
aa(lp577
g484
aI2315
aI0
aa(lp578
g484
aI2330
aI0
aa(lp579
g484
aI2345
aI0
aa.